; Function Attrs: mustprogress uwtable
define i16 @_ZN3nix11RemoteStore15isTrustedClientEv(ptr nocapture noundef nonnull readonly align 8 dereferenceable(25) %0) unnamed_addr #5 align 2 personality ptr @__gxx_personality_v0 {
  %2 = alloca %"struct.nix::RemoteStore::ConnectionHandle", align 8
  call void @_ZN3nix11RemoteStore13getConnectionEv(ptr dead_on_unwind nonnull writable sret(%"struct.nix::RemoteStore::ConnectionHandle") align 8 %2, ptr noundef nonnull align 8 dereferenceable(25) %0)
  %3 = getelementptr inbounds i8, ptr %2, i64 8
  %4 = load ptr, ptr %3, align 8
  %5 = getelementptr inbounds i8, ptr %4, i64 172
  %.sroa.0.0.copyload = load i16, ptr %5, align 4
  call void @_ZN3nix11RemoteStore16ConnectionHandleD1Ev(ptr noundef nonnull align 8 dereferenceable(33) %2) #29
  ret i16 %.sroa.0.0.copyload
}